; ModuleID = '35/508.c'
source_filename = "35/508.c"
target datalayout = "e-m:e-p270:32:32-p271:32:32-p272:64:64-i64:64-f80:128-n8:16:32:64-S128"
target triple = "x86_64-pc-linux-gnu"

@.str = private unnamed_addr constant [6 x i8] c"%d,%d\00", align 1
@.str.1 = private unnamed_addr constant [3 x i8] c"%d\00", align 1
@.str.2 = private unnamed_addr constant [6 x i8] c"%d+%d\00", align 1
@.str.3 = private unnamed_addr constant [3 x i8] c"No\00", align 1

; Function Attrs: noinline nounwind uwtable
define dso_local void @main() #0 {
  %1 = alloca i32, align 4
  %2 = alloca i32, align 4
  %3 = alloca i32, align 4
  %4 = alloca i32, align 4
  %5 = alloca i32, align 4
  %6 = alloca i32, align 4
  %7 = alloca i32, align 4
  %8 = alloca i32, align 4
  %9 = alloca [10 x [10 x i32]], align 16
  store i32 0, i32* %7, align 4
  store i32 0, i32* %8, align 4
  %10 = call i32 (i8*, ...) @__isoc99_scanf(i8* getelementptr inbounds ([6 x i8], [6 x i8]* @.str, i64 0, i64 0), i32* %2, i32* %1)
  store i32 0, i32* %4, align 4
  br label %11

11:                                               ; preds = %32, %0
  %12 = load i32, i32* %4, align 4
  %13 = load i32, i32* %2, align 4
  %14 = icmp slt i32 %12, %13
  br i1 %14, label %15, label %35

15:                                               ; preds = %11
  store i32 0, i32* %3, align 4
  br label %16

16:                                               ; preds = %28, %15
  %17 = load i32, i32* %3, align 4
  %18 = load i32, i32* %1, align 4
  %19 = icmp slt i32 %17, %18
  br i1 %19, label %20, label %31

20:                                               ; preds = %16
  %21 = load i32, i32* %4, align 4
  %22 = sext i32 %21 to i64
  %23 = getelementptr inbounds [10 x [10 x i32]], [10 x [10 x i32]]* %9, i64 0, i64 %22
  %24 = load i32, i32* %3, align 4
  %25 = sext i32 %24 to i64
  %26 = getelementptr inbounds [10 x i32], [10 x i32]* %23, i64 0, i64 %25
  %27 = call i32 (i8*, ...) @__isoc99_scanf(i8* getelementptr inbounds ([3 x i8], [3 x i8]* @.str.1, i64 0, i64 0), i32* %26)
  br label %28

28:                                               ; preds = %20
  %29 = load i32, i32* %3, align 4
  %30 = add nsw i32 %29, 1
  store i32 %30, i32* %3, align 4
  br label %16

31:                                               ; preds = %16
  br label %32

32:                                               ; preds = %31
  %33 = load i32, i32* %4, align 4
  %34 = add nsw i32 %33, 1
  store i32 %34, i32* %4, align 4
  br label %11

35:                                               ; preds = %11
  store i32 0, i32* %4, align 4
  br label %36

36:                                               ; preds = %115, %35
  %37 = load i32, i32* %4, align 4
  %38 = load i32, i32* %2, align 4
  %39 = icmp slt i32 %37, %38
  br i1 %39, label %40, label %118

40:                                               ; preds = %36
  store i32 0, i32* %6, align 4
  store i32 0, i32* %3, align 4
  br label %41

41:                                               ; preds = %64, %40
  %42 = load i32, i32* %3, align 4
  %43 = load i32, i32* %1, align 4
  %44 = icmp slt i32 %42, %43
  br i1 %44, label %45, label %67

45:                                               ; preds = %41
  %46 = load i32, i32* %4, align 4
  %47 = sext i32 %46 to i64
  %48 = getelementptr inbounds [10 x [10 x i32]], [10 x [10 x i32]]* %9, i64 0, i64 %47
  %49 = load i32, i32* %3, align 4
  %50 = sext i32 %49 to i64
  %51 = getelementptr inbounds [10 x i32], [10 x i32]* %48, i64 0, i64 %50
  %52 = load i32, i32* %51, align 4
  %53 = load i32, i32* %6, align 4
  %54 = icmp sgt i32 %52, %53
  br i1 %54, label %55, label %63

55:                                               ; preds = %45
  %56 = load i32, i32* %4, align 4
  %57 = sext i32 %56 to i64
  %58 = getelementptr inbounds [10 x [10 x i32]], [10 x [10 x i32]]* %9, i64 0, i64 %57
  %59 = load i32, i32* %3, align 4
  %60 = sext i32 %59 to i64
  %61 = getelementptr inbounds [10 x i32], [10 x i32]* %58, i64 0, i64 %60
  %62 = load i32, i32* %61, align 4
  store i32 %62, i32* %6, align 4
  br label %63

63:                                               ; preds = %55, %45
  br label %64

64:                                               ; preds = %63
  %65 = load i32, i32* %3, align 4
  %66 = add nsw i32 %65, 1
  store i32 %66, i32* %3, align 4
  br label %41

67:                                               ; preds = %41
  store i32 0, i32* %3, align 4
  br label %68

68:                                               ; preds = %111, %67
  %69 = load i32, i32* %3, align 4
  %70 = load i32, i32* %1, align 4
  %71 = icmp slt i32 %69, %70
  br i1 %71, label %72, label %114

72:                                               ; preds = %68
  %73 = load i32, i32* %4, align 4
  %74 = sext i32 %73 to i64
  %75 = getelementptr inbounds [10 x [10 x i32]], [10 x [10 x i32]]* %9, i64 0, i64 %74
  %76 = load i32, i32* %3, align 4
  %77 = sext i32 %76 to i64
  %78 = getelementptr inbounds [10 x i32], [10 x i32]* %75, i64 0, i64 %77
  %79 = load i32, i32* %78, align 4
  %80 = load i32, i32* %6, align 4
  %81 = icmp eq i32 %79, %80
  br i1 %81, label %82, label %110

82:                                               ; preds = %72
  store i32 0, i32* %5, align 4
  br label %83

83:                                               ; preds = %99, %82
  %84 = load i32, i32* %5, align 4
  %85 = load i32, i32* %2, align 4
  %86 = icmp slt i32 %84, %85
  br i1 %86, label %87, label %102

87:                                               ; preds = %83
  %88 = load i32, i32* %5, align 4
  %89 = sext i32 %88 to i64
  %90 = getelementptr inbounds [10 x [10 x i32]], [10 x [10 x i32]]* %9, i64 0, i64 %89
  %91 = load i32, i32* %3, align 4
  %92 = sext i32 %91 to i64
  %93 = getelementptr inbounds [10 x i32], [10 x i32]* %90, i64 0, i64 %92
  %94 = load i32, i32* %93, align 4
  %95 = load i32, i32* %6, align 4
  %96 = icmp slt i32 %94, %95
  br i1 %96, label %97, label %98

97:                                               ; preds = %87
  store i32 1, i32* %7, align 4
  br label %98

98:                                               ; preds = %97, %87
  br label %99

99:                                               ; preds = %98
  %100 = load i32, i32* %5, align 4
  %101 = add nsw i32 %100, 1
  store i32 %101, i32* %5, align 4
  br label %83

102:                                              ; preds = %83
  %103 = load i32, i32* %7, align 4
  %104 = icmp eq i32 %103, 0
  br i1 %104, label %105, label %109

105:                                              ; preds = %102
  %106 = load i32, i32* %4, align 4
  %107 = load i32, i32* %3, align 4
  %108 = call i32 (i8*, ...) @printf(i8* getelementptr inbounds ([6 x i8], [6 x i8]* @.str.2, i64 0, i64 0), i32 %106, i32 %107)
  store i32 1, i32* %8, align 4
  br label %109

109:                                              ; preds = %105, %102
  br label %110

110:                                              ; preds = %109, %72
  br label %111

111:                                              ; preds = %110
  %112 = load i32, i32* %3, align 4
  %113 = add nsw i32 %112, 1
  store i32 %113, i32* %3, align 4
  br label %68

114:                                              ; preds = %68
  br label %115

115:                                              ; preds = %114
  %116 = load i32, i32* %4, align 4
  %117 = add nsw i32 %116, 1
  store i32 %117, i32* %4, align 4
  br label %36

118:                                              ; preds = %36
  %119 = load i32, i32* %8, align 4
  %120 = icmp eq i32 %119, 0
  br i1 %120, label %121, label %123

121:                                              ; preds = %118
  %122 = call i32 (i8*, ...) @printf(i8* getelementptr inbounds ([3 x i8], [3 x i8]* @.str.3, i64 0, i64 0))
  br label %123

123:                                              ; preds = %121, %118
  ret void
}

declare dso_local i32 @__isoc99_scanf(i8*, ...) #1

declare dso_local i32 @printf(i8*, ...) #1


!llvm.module.flags = !{!0}
!llvm.ident = !{!1}

!0 = !{i32 1, !"wchar_size", i32 4}
!1 = !{!"clang version 10.0.0-4ubuntu1 "}
